; Function Attrs: mustprogress uwtable
define hidden noundef nonnull align 8 dereferenceable(8) ptr @_Z11ast_smt2_ppRSoRK6symbolbR19smt2_pp_environmentRK10params_ref(ptr noundef nonnull returned align 8 dereferenceable(8) %out, ptr noundef nonnull align 8 dereferenceable(8) %s, i1 noundef zeroext %is_skolem, ptr noundef nonnull align 8 dereferenceable(56) %env, ptr noundef nonnull align 8 dereferenceable(8) %p) local_unnamed_addr #3 personality ptr @__gxx_personality_v0 {
entry:
  %len = alloca i32, align 4
  %r = alloca %class.obj_ref, align 8
  %vtable = load ptr, ptr %env, align 8
  %vfn = getelementptr inbounds i8, ptr %vtable, i64 16
  %0 = load ptr, ptr %vfn, align 8
  %call = tail call noundef nonnull align 8 dereferenceable(976) ptr %0(ptr noundef nonnull align 8 dereferenceable(56) %env)
  %m_format_manager.i.i.i = getelementptr inbounds i8, ptr %call, i64 928
  %1 = load ptr, ptr %m_format_manager.i.i.i, align 8
  %cmp.i.i.i = icmp eq ptr %1, null
  %cond-lvalue.i.i = select i1 %cmp.i.i.i, ptr %call, ptr %1
  store ptr null, ptr %r, align 8
  %m_manager.i = getelementptr inbounds i8, ptr %r, i64 8
  store ptr %cond-lvalue.i.i, ptr %m_manager.i, align 8
  %call2 = invoke noundef ptr @_ZNK19smt2_pp_environment13pp_fdecl_nameERK6symbolRjb(ptr noundef nonnull align 8 dereferenceable(56) %env, ptr noundef nonnull align 8 dereferenceable(8) %s, ptr noundef nonnull align 4 dereferenceable(4) %len, i1 zeroext poison)
          to label %invoke.cont unwind label %lpad

invoke.cont:                                      ; preds = %entry
  %tobool.not.i = icmp eq ptr %call2, null
  br i1 %tobool.not.i, label %invoke.cont3, label %_ZN11ast_manager7inc_refEP3ast.exit.i

_ZN11ast_manager7inc_refEP3ast.exit.i:            ; preds = %invoke.cont
  %m_ref_count.i.i.i = getelementptr inbounds i8, ptr %call2, i64 8
  %2 = load i32, ptr %m_ref_count.i.i.i, align 4
  %inc.i.i.i = add i32 %2, 1
  store i32 %inc.i.i.i, ptr %m_ref_count.i.i.i, align 4
  br label %invoke.cont3

invoke.cont3:                                     ; preds = %invoke.cont, %_ZN11ast_manager7inc_refEP3ast.exit.i
  store ptr %call2, ptr %r, align 8
  invoke void @_Z2ppRSoP3appR11ast_managerRK10params_ref(ptr noundef nonnull align 8 dereferenceable(8) %out, ptr noundef %call2, ptr noundef nonnull align 8 dereferenceable(976) %call, ptr noundef nonnull align 8 dereferenceable(8) %p)
          to label %invoke.cont7 unwind label %lpad

invoke.cont7:                                     ; preds = %invoke.cont3
  br i1 %tobool.not.i, label %_ZN7obj_refI3app11ast_managerED2Ev.exit, label %if.then.i.i.i5

if.then.i.i.i5:                                   ; preds = %invoke.cont7
  %m_ref_count.i.i.i.i7 = getelementptr inbounds i8, ptr %call2, i64 8
  %3 = load i32, ptr %m_ref_count.i.i.i.i7, align 4
  %dec.i.i.i.i8 = add i32 %3, -1
  store i32 %dec.i.i.i.i8, ptr %m_ref_count.i.i.i.i7, align 4
  %cmp.i.i.i9 = icmp eq i32 %dec.i.i.i.i8, 0
  br i1 %cmp.i.i.i9, label %if.then2.i.i.i10, label %_ZN7obj_refI3app11ast_managerED2Ev.exit

if.then2.i.i.i10:                                 ; preds = %if.then.i.i.i5
  invoke void @_ZN11ast_manager11delete_nodeEP3ast(ptr noundef nonnull align 8 dereferenceable(976) %cond-lvalue.i.i, ptr noundef nonnull %call2)
          to label %_ZN7obj_refI3app11ast_managerED2Ev.exit unwind label %terminate.lpad.i

terminate.lpad.i:                                 ; preds = %if.then2.i.i.i10
  %4 = landingpad { ptr, i32 }
          catch ptr null
  %5 = extractvalue { ptr, i32 } %4, 0
  tail call void @__clang_call_terminate(ptr %5) #22
  unreachable

_ZN7obj_refI3app11ast_managerED2Ev.exit:          ; preds = %invoke.cont7, %if.then.i.i.i5, %if.then2.i.i.i10
  ret ptr %out

lpad:                                             ; preds = %invoke.cont3, %entry
  %6 = landingpad { ptr, i32 }
          cleanup
  call void @_ZN7obj_refI3app11ast_managerED2Ev(ptr noundef nonnull align 8 dereferenceable(16) %r) #19
  resume { ptr, i32 } %6
}